target datalayout = "e-m:e-p270:32:32-p271:32:32-p272:64:64-i64:64-i128:128-f80:128-n8:16:32:64-S128"
target triple = "x86_64-pc-linux-gnu"

%struct.nstime_t = type { i64, i32 }
%struct.tm = type { i32, i32, i32, i32, i32, i32, i32, i32, i32, i64, ptr }

@.str.688 = private unnamed_addr constant [3 x i8] c"%s\00", align 1
@.str.690 = private unnamed_addr constant [18 x i8] c"Not representable\00", align 1

; Function Attrs: null_pointer_is_valid sspstrong uwtable
define internal i32 @add_abstime_common(ptr noundef %0, i32 noundef %1, ptr noundef %2, i32 noundef %3, ptr noundef %4) #0 {
  %6 = alloca ptr, align 8
  %7 = alloca i32, align 4
  %8 = alloca ptr, align 8
  %9 = alloca i32, align 4
  %10 = alloca ptr, align 8
  %11 = alloca %struct.nstime_t, align 8
  %12 = alloca ptr, align 8
  store ptr %0, ptr %6, align 8
  store i32 %1, ptr %7, align 4
  store ptr %2, ptr %8, align 8
  store i32 %3, ptr %9, align 4
  store ptr %4, ptr %10, align 8
  call void @llvm.lifetime.start.p0(i64 16, ptr %11) #7
  call void @llvm.lifetime.start.p0(i64 8, ptr %12) #7
  %13 = load ptr, ptr %6, align 8
  %14 = load i32, ptr %7, align 4
  %15 = call i32 @tvb_get_letohl(ptr noundef %13, i32 noundef %14)
  %16 = zext i32 %15 to i64
  %17 = getelementptr inbounds nuw %struct.nstime_t, ptr %11, i32 0, i32 0
  store i64 %16, ptr %17, align 8
  %18 = getelementptr inbounds nuw %struct.nstime_t, ptr %11, i32 0, i32 1
  store i32 0, ptr %18, align 8
  %19 = getelementptr inbounds nuw %struct.nstime_t, ptr %11, i32 0, i32 0
  %20 = load i64, ptr %19, align 8
  %21 = icmp eq i64 %20, -1
  br i1 %21, label %26, label %22

22:                                               ; preds = %5
  %23 = getelementptr inbounds nuw %struct.nstime_t, ptr %11, i32 0, i32 0
  %24 = load i64, ptr %23, align 8
  %25 = icmp eq i64 %24, 0
  br i1 %25, label %26, label %33

26:                                               ; preds = %22, %5
  %27 = load ptr, ptr %8, align 8
  %28 = load i32, ptr %9, align 4
  %29 = load ptr, ptr %6, align 8
  %30 = load i32, ptr %7, align 4
  %31 = load ptr, ptr %10, align 8
  %32 = call ptr (ptr, i32, ptr, i32, i32, ptr, ptr, ...) @proto_tree_add_time_format_value(ptr noundef %27, i32 noundef %28, ptr noundef %29, i32 noundef %30, i32 noundef 4, ptr noundef %11, ptr noundef @.str.688, ptr noundef %31)
  br label %56

33:                                               ; preds = %22
  %34 = getelementptr inbounds nuw %struct.nstime_t, ptr %11, i32 0, i32 0
  %35 = call ptr @gmtime(ptr noundef %34) #7
  store ptr %35, ptr %12, align 8
  %36 = load ptr, ptr %12, align 8
  %37 = icmp eq ptr %36, null
  br i1 %37, label %38, label %44

38:                                               ; preds = %33
  %39 = load ptr, ptr %8, align 8
  %40 = load i32, ptr %9, align 4
  %41 = load ptr, ptr %6, align 8
  %42 = load i32, ptr %7, align 4
  %43 = call ptr (ptr, i32, ptr, i32, i32, ptr, ptr, ...) @proto_tree_add_time_format_value(ptr noundef %39, i32 noundef %40, ptr noundef %41, i32 noundef %42, i32 noundef 4, ptr noundef %11, ptr noundef @.str.690)
  br label %55

44:                                               ; preds = %33
  %45 = load ptr, ptr %12, align 8
  %46 = getelementptr inbounds nuw %struct.tm, ptr %45, i32 0, i32 8
  store i32 -1, ptr %46, align 8
  %47 = load ptr, ptr %12, align 8
  %48 = call i64 @mktime(ptr noundef %47) #7
  %49 = getelementptr inbounds nuw %struct.nstime_t, ptr %11, i32 0, i32 0
  store i64 %48, ptr %49, align 8
  %50 = load ptr, ptr %8, align 8
  %51 = load i32, ptr %9, align 4
  %52 = load ptr, ptr %6, align 8
  %53 = load i32, ptr %7, align 4
  %54 = call ptr @proto_tree_add_time(ptr noundef %50, i32 noundef %51, ptr noundef %52, i32 noundef %53, i32 noundef 4, ptr noundef %11)
  br label %55

55:                                               ; preds = %44, %38
  br label %56

56:                                               ; preds = %55, %26
  %57 = load i32, ptr %7, align 4
  %58 = add i32 %57, 4
  store i32 %58, ptr %7, align 4
  %59 = load i32, ptr %7, align 4
  call void @llvm.lifetime.end.p0(i64 8, ptr %12) #7
  call void @llvm.lifetime.end.p0(i64 16, ptr %11) #7
  ret i32 %59
}