; Function Attrs: null_pointer_is_valid sspstrong uwtable
define internal fastcc noundef i32 @add_abstime_common(ptr noundef %0, i32 noundef %1, ptr noundef %2, i32 noundef %3, ptr noundef %4) unnamed_addr #0 {
  %6 = alloca %struct.nstime_t, align 8
  call void @llvm.lifetime.start.p0(i64 16, ptr nonnull %6) #9
  %7 = tail call i32 @tvb_get_letohl(ptr noundef %0, i32 noundef %1)
  %8 = zext i32 %7 to i64
  store i64 %8, ptr %6, align 8
  %9 = getelementptr inbounds nuw i8, ptr %6, i64 8
  store i32 0, ptr %9, align 8
  %10 = icmp eq i32 %7, 0
  br i1 %10, label %11, label %13

11:                                               ; preds = %5
  %12 = call ptr (ptr, i32, ptr, i32, i32, ptr, ptr, ...) @proto_tree_add_time_format_value(ptr noundef %2, i32 noundef %3, ptr noundef %0, i32 noundef %1, i32 noundef 4, ptr noundef nonnull %6, ptr noundef nonnull @.str.688, ptr noundef %4)
  br label %22

13:                                               ; preds = %5
  %14 = call ptr @gmtime(ptr noundef nonnull %6) #9
  %15 = icmp eq ptr %14, null
  br i1 %15, label %16, label %18

16:                                               ; preds = %13
  %17 = call ptr (ptr, i32, ptr, i32, i32, ptr, ptr, ...) @proto_tree_add_time_format_value(ptr noundef %2, i32 noundef %3, ptr noundef %0, i32 noundef %1, i32 noundef 4, ptr noundef nonnull %6, ptr noundef nonnull @.str.690)
  br label %22

18:                                               ; preds = %13
  %19 = getelementptr inbounds nuw i8, ptr %14, i64 32
  store i32 -1, ptr %19, align 8
  %20 = call i64 @mktime(ptr noundef nonnull %14) #9
  store i64 %20, ptr %6, align 8
  %21 = call ptr @proto_tree_add_time(ptr noundef %2, i32 noundef %3, ptr noundef %0, i32 noundef %1, i32 noundef 4, ptr noundef nonnull %6)
  br label %22

22:                                               ; preds = %16, %18, %11
  %23 = add i32 %1, 4
  call void @llvm.lifetime.end.p0(i64 16, ptr nonnull %6) #9
  ret i32 %23
}